; Function Attrs: nounwind uwtable
define hidden void @zif_output_reset_rewrite_vars(ptr noundef readonly captures(none) %0, ptr noundef writeonly captures(none) %1) local_unnamed_addr #0 {
  %3 = getelementptr inbounds nuw i8, ptr %0, i64 44
  %4 = load i32, ptr %3, align 4, !tbaa !8
  %.not = icmp eq i32 %4, 0
  br i1 %.not, label %.critedge, label %5, !prof !113

5:                                                ; preds = %2
  tail call void @zend_wrong_parameters_none_error() #22
  %6 = load ptr, ptr getelementptr inbounds nuw (i8, ptr @executor_globals, i64 960), align 8, !tbaa !112
  %7 = icmp ne ptr %6, null
  tail call void @llvm.assume(i1 %7)
  br label %13

.critedge:                                        ; preds = %2
  %8 = tail call i32 @php_url_scanner_reset_vars() #22
  %9 = icmp eq i32 %8, 0
  %10 = getelementptr inbounds nuw i8, ptr %1, i64 8
  br i1 %9, label %11, label %12

11:                                               ; preds = %.critedge
  store i32 3, ptr %10, align 8, !tbaa !8
  br label %13

12:                                               ; preds = %.critedge
  store i32 2, ptr %10, align 8, !tbaa !8
  br label %13

13:                                               ; preds = %12, %11, %5
  ret void
}